; Function Attrs: mustprogress nounwind uwtable
define hidden void @_ZN14ThreadSnapshotD2Ev(ptr nocapture noundef nonnull align 8 dereferenceable(112) %0) unnamed_addr #0 align 2 {
  %2 = getelementptr inbounds i8, ptr %0, i64 72
  %3 = load ptr, ptr %2, align 8
  %.not.i = icmp eq ptr %3, null
  br i1 %.not.i, label %_ZN9OopHandle7releaseEP10OopStorage.exit, label %4

4:                                                ; preds = %1
  %5 = load ptr, ptr @_ZL23_thread_service_storage, align 8
  %6 = load ptr, ptr @_ZN14AccessInternal15RuntimeDispatchILm548932EP7oopDescLNS_11BarrierTypeE0EE11_store_funcE, align 8
  tail call void %6(ptr noundef nonnull %3, ptr noundef null) #12
  %7 = load ptr, ptr %2, align 8
  tail call void @_ZN10OopStorage7releaseEPKP7oopDesc(ptr noundef nonnull align 8 dereferenceable(126) %5, ptr noundef %7) #12
  store ptr null, ptr %2, align 8
  br label %_ZN9OopHandle7releaseEP10OopStorage.exit

_ZN9OopHandle7releaseEP10OopStorage.exit:         ; preds = %1, %4
  %8 = getelementptr inbounds i8, ptr %0, i64 80
  %9 = load ptr, ptr %8, align 8
  %.not.i2 = icmp eq ptr %9, null
  br i1 %.not.i2, label %_ZN9OopHandle7releaseEP10OopStorage.exit3, label %10

10:                                               ; preds = %_ZN9OopHandle7releaseEP10OopStorage.exit
  %11 = load ptr, ptr @_ZL23_thread_service_storage, align 8
  %12 = load ptr, ptr @_ZN14AccessInternal15RuntimeDispatchILm548932EP7oopDescLNS_11BarrierTypeE0EE11_store_funcE, align 8
  tail call void %12(ptr noundef nonnull %9, ptr noundef null) #12
  %13 = load ptr, ptr %8, align 8
  tail call void @_ZN10OopStorage7releaseEPKP7oopDesc(ptr noundef nonnull align 8 dereferenceable(126) %11, ptr noundef %13) #12
  store ptr null, ptr %8, align 8
  br label %_ZN9OopHandle7releaseEP10OopStorage.exit3

_ZN9OopHandle7releaseEP10OopStorage.exit3:        ; preds = %_ZN9OopHandle7releaseEP10OopStorage.exit, %10
  %14 = getelementptr inbounds i8, ptr %0, i64 8
  %15 = load ptr, ptr %14, align 8
  %.not.i4 = icmp eq ptr %15, null
  br i1 %.not.i4, label %_ZN9OopHandle7releaseEP10OopStorage.exit5, label %16

16:                                               ; preds = %_ZN9OopHandle7releaseEP10OopStorage.exit3
  %17 = load ptr, ptr @_ZL23_thread_service_storage, align 8
  %18 = load ptr, ptr @_ZN14AccessInternal15RuntimeDispatchILm548932EP7oopDescLNS_11BarrierTypeE0EE11_store_funcE, align 8
  tail call void %18(ptr noundef nonnull %15, ptr noundef null) #12
  %19 = load ptr, ptr %14, align 8
  tail call void @_ZN10OopStorage7releaseEPKP7oopDesc(ptr noundef nonnull align 8 dereferenceable(126) %17, ptr noundef %19) #12
  store ptr null, ptr %14, align 8
  br label %_ZN9OopHandle7releaseEP10OopStorage.exit5

_ZN9OopHandle7releaseEP10OopStorage.exit5:        ; preds = %_ZN9OopHandle7releaseEP10OopStorage.exit3, %16
  %20 = getelementptr inbounds i8, ptr %0, i64 88
  %21 = load ptr, ptr %20, align 8
  %22 = icmp eq ptr %21, null
  br i1 %22, label %24, label %23

23:                                               ; preds = %_ZN9OopHandle7releaseEP10OopStorage.exit5
  tail call void @_ZN16ThreadStackTraceD2Ev(ptr noundef nonnull align 8 dereferenceable(32) %21) #12
  tail call void @_Z8FreeHeapPv(ptr noundef nonnull %21) #12
  br label %24

24:                                               ; preds = %23, %_ZN9OopHandle7releaseEP10OopStorage.exit5
  %25 = getelementptr inbounds i8, ptr %0, i64 96
  %26 = load ptr, ptr %25, align 8
  %27 = icmp eq ptr %26, null
  br i1 %27, label %50, label %28

28:                                               ; preds = %24
  %29 = load ptr, ptr %26, align 8
  %30 = load i32, ptr %29, align 4
  %31 = icmp sgt i32 %30, 0
  br i1 %31, label %.lr.ph.i, label %._crit_edge.i

.lr.ph.i:                                         ; preds = %28, %_ZN9OopHandle7releaseEP10OopStorage.exit.i
  %32 = phi i32 [ %42, %_ZN9OopHandle7releaseEP10OopStorage.exit.i ], [ %30, %28 ]
  %33 = phi ptr [ %43, %_ZN9OopHandle7releaseEP10OopStorage.exit.i ], [ %29, %28 ]
  %indvars.iv.i = phi i64 [ %indvars.iv.next.i, %_ZN9OopHandle7releaseEP10OopStorage.exit.i ], [ 0, %28 ]
  %34 = getelementptr inbounds i8, ptr %33, i64 8
  %35 = load ptr, ptr %34, align 8
  %36 = getelementptr inbounds %class.OopHandle, ptr %35, i64 %indvars.iv.i
  %37 = load ptr, ptr %36, align 8
  %.not.i.i = icmp eq ptr %37, null
  br i1 %.not.i.i, label %_ZN9OopHandle7releaseEP10OopStorage.exit.i, label %38

38:                                               ; preds = %.lr.ph.i
  %39 = load ptr, ptr @_ZL23_thread_service_storage, align 8
  %40 = load ptr, ptr @_ZN14AccessInternal15RuntimeDispatchILm548932EP7oopDescLNS_11BarrierTypeE0EE11_store_funcE, align 8
  tail call void %40(ptr noundef nonnull %37, ptr noundef null) #12
  %41 = load ptr, ptr %36, align 8
  tail call void @_ZN10OopStorage7releaseEPKP7oopDesc(ptr noundef nonnull align 8 dereferenceable(126) %39, ptr noundef %41) #12
  store ptr null, ptr %36, align 8
  %.pre.i = load ptr, ptr %26, align 8
  %.pre8.i = load i32, ptr %.pre.i, align 4
  br label %_ZN9OopHandle7releaseEP10OopStorage.exit.i

_ZN9OopHandle7releaseEP10OopStorage.exit.i:       ; preds = %38, %.lr.ph.i
  %42 = phi i32 [ %32, %.lr.ph.i ], [ %.pre8.i, %38 ]
  %43 = phi ptr [ %33, %.lr.ph.i ], [ %.pre.i, %38 ]
  %indvars.iv.next.i = add nuw nsw i64 %indvars.iv.i, 1
  %44 = sext i32 %42 to i64
  %45 = icmp slt i64 %indvars.iv.next.i, %44
  br i1 %45, label %.lr.ph.i, label %._crit_edge.i, !llvm.loop !31

._crit_edge.i:                                    ; preds = %_ZN9OopHandle7releaseEP10OopStorage.exit.i, %28
  %.lcssa.i = phi ptr [ %29, %28 ], [ %43, %_ZN9OopHandle7releaseEP10OopStorage.exit.i ]
  %46 = getelementptr inbounds i8, ptr %.lcssa.i, i64 16
  %47 = load i64, ptr %46, align 8
  %48 = and i64 %47, 1
  %.not.i4.i = icmp eq i64 %48, 0
  br i1 %.not.i4.i, label %_ZN21ThreadConcurrentLocksD2Ev.exit, label %49

49:                                               ; preds = %._crit_edge.i
  store i32 0, ptr %.lcssa.i, align 4
  tail call void @_ZN26GrowableArrayWithAllocatorI9OopHandle13GrowableArrayIS0_EE13shrink_to_fitEv(ptr noundef nonnull align 8 dereferenceable(16) %.lcssa.i)
  br label %_ZN21ThreadConcurrentLocksD2Ev.exit

_ZN21ThreadConcurrentLocksD2Ev.exit:              ; preds = %._crit_edge.i, %49
  tail call void @_ZN6AnyObjdlEPv(ptr noundef nonnull %.lcssa.i) #12
  tail call void @_Z8FreeHeapPv(ptr noundef nonnull %26) #12
  br label %50

50:                                               ; preds = %_ZN21ThreadConcurrentLocksD2Ev.exit, %24
  ret void
}